target datalayout = "e-m:e-p270:32:32-p271:32:32-p272:64:64-i64:64-i128:128-f80:128-n8:16:32:64-S128"
target triple = "x86_64-pc-linux-gnu"

%class.LibRaw = type { ptr, %struct.libraw_data_t, ptr, %struct.libraw_internal_data_t, [2048 x %struct.decode], ptr, ptr, [10 x %struct.tiff_ifd_t], %class.libraw_memmgr, %struct.libraw_callbacks_t, { i64, i64 }, { i64, i64 }, { i64, i64 }, ptr, ptr, ptr, i64, ptr, ptr, ptr, ptr }
%struct.libraw_data_t = type { ptr, %struct.libraw_image_sizes_t, %struct.libraw_iparams_t, %struct.libraw_lensinfo_t, %struct.libraw_makernotes_t, %struct.libraw_shootinginfo_t, %struct.libraw_output_params_t, %struct.libraw_raw_unpack_params_t, i32, i32, %struct.libraw_colordata_t, %struct.libraw_imgother_t, %struct.libraw_thumbnail_t, %struct.libraw_thumbnail_list_t, %struct.libraw_rawdata_t, ptr }
%struct.libraw_image_sizes_t = type { i16, i16, i16, i16, i16, i16, i16, i16, i32, double, i32, [8 x [4 x i32]], i16, [2 x %struct.libraw_raw_inset_crop_t] }
%struct.libraw_raw_inset_crop_t = type { i16, i16, i16, i16 }
%struct.libraw_iparams_t = type { [4 x i8], [64 x i8], [64 x i8], [64 x i8], [64 x i8], [64 x i8], i32, i32, i32, i32, i32, i32, [6 x [6 x i8]], [6 x [6 x i8]], [5 x i8], i32, ptr }
%struct.libraw_lensinfo_t = type { float, float, float, float, float, [128 x i8], [128 x i8], [128 x i8], [128 x i8], i16, %struct.libraw_nikonlens_t, %struct.libraw_dnglens_t, %struct.libraw_makernotes_lens_t }
%struct.libraw_nikonlens_t = type { float, i8, i8, i8, i8 }
%struct.libraw_dnglens_t = type { float, float, float, float }
%struct.libraw_makernotes_lens_t = type { i64, [128 x i8], i16, i16, i64, i16, i16, [64 x i8], i16, [16 x i8], [16 x i8], float, float, float, float, float, float, float, float, float, float, float, float, float, float, float, i64, [128 x i8], i64, [128 x i8], i64, [128 x i8], i16, float }
%struct.libraw_makernotes_t = type { %struct.libraw_canon_makernotes_t, %struct.libraw_nikon_makernotes_t, %struct.libraw_hasselblad_makernotes_t, %struct.libraw_fuji_info_t, %struct.libraw_olympus_makernotes_t, %struct.libraw_sony_info_t, %struct.libraw_kodak_makernotes_t, %struct.libraw_panasonic_makernotes_t, %struct.libraw_pentax_makernotes_t, %struct.libraw_p1_makernotes_t, %struct.libraw_ricoh_makernotes_t, %struct.libraw_samsung_makernotes_t, %struct.libraw_metadata_common_t }
%struct.libraw_canon_makernotes_t = type { i32, i32, i32, i32, [4 x i32], i32, [4 x i32], i16, i16, i8, i16, i16, i16, i16, i16, i16, i16, i16, i16, i16, i16, i16, i16, i32, float, i16, i16, i16, i32, i16, i32, i32, i16, i32, %struct.libraw_area_t, %struct.libraw_area_t, %struct.libraw_area_t, %struct.libraw_area_t, %struct.libraw_area_t, [2 x i16] }
%struct.libraw_area_t = type { i16, i16, i16, i16 }
%struct.libraw_nikon_makernotes_t = type { double, i16, i16, [7 x i8], i8, i8, [13 x i8], [20 x i8], [4 x i8], [4 x i8], [4 x i8], i8, i8, i8, i8, i8, [2 x i8], i8, i8, i8, i8, i8, [4 x i8], [4 x i8], i8, i16, i32, i32, i32, i32, [4 x double], i8, i8, i8, i32, i32, i32, i8, [4 x i16], i16, %struct.libraw_sensor_highspeed_crop_t, i16, i16, i16, i32, [20 x i8], [20 x i8], i32, i16, double, double, double }
%struct.libraw_sensor_highspeed_crop_t = type { i16, i16, i16, i16 }
%struct.libraw_hasselblad_makernotes_t = type { i32, double, [8 x i8], [64 x i8], [64 x i8], i32, i32, i32, i32, [32 x i8], [64 x i8], i32, [2 x i32], [2 x i32], [4 x [3 x double]] }
%struct.libraw_fuji_info_t = type { float, i16, i16, i16, i16, i16, i16, i16, i16, [33 x i8], [33 x i8], float, i16, i16, [2 x i16], i16, i32, i32, i16, [3 x i16], i16, i16, i16, i16, i16, i32, i16, [13 x i8], [5 x i8], [5 x i8], i32, i16, i32, i16, [9 x i16], [32 x i32], i32, i32, i32, [2 x float], i32 }
%struct.libraw_olympus_makernotes_t = type { [6 x i8], i16, [2 x i32], [5 x i16], i16, [2 x i16], i16, i16, [64 x i32], [5 x double], i16, i8, [3 x i16], [3 x i32], i16, i16, i16, i16, double, [4 x i16], [2 x i32], i8, i32, i16, i16 }
%struct.libraw_sony_info_t = type { i16, i8, i8, i32, i8, i32, i8, i8, i16, [2 x i16], i8, i8, i16, [10 x i8], i8, i8, [4 x i16], i16, i8, i8, i8, i16, i32, i16, [2 x i16], i16, i16, i16, i16, i16, i16, i16, i32, float, i16, i32, i32, i16, [20 x i8], i32, i16, i32, i8, i8, i16, i16, i16, i16, i16, i16, i16, i16, i16, i32, i16, [16 x i8], float }
%struct.libraw_kodak_makernotes_t = type { i16, i16, i16, i16, i16, i16, [3 x [3 x float]], [3 x [3 x float]], [3 x [3 x float]], [3 x [3 x float]], [3 x [3 x float]], [3 x [3 x float]], i16, i16, i16, i16, float, float }
%struct.libraw_panasonic_makernotes_t = type { i16, i16, [8 x float], i32, float, [3 x i32], i16, i16, i32, i32 }
%struct.libraw_pentax_makernotes_t = type { [4 x i8], [2 x i16], [2 x i16], i16, i32, i32, i16, i16, i8, i8, i16 }
%struct.libraw_p1_makernotes_t = type { [64 x i8], [64 x i8], [256 x i8], [64 x i8] }
%struct.libraw_ricoh_makernotes_t = type { i16, [2 x i32], [2 x i32], i16, i32, i32, i32, i32, i16, i16, i16, i16, i16, i16, double, double }
%struct.libraw_samsung_makernotes_t = type { [4 x i32], [4 x i32], [2 x i32], [11 x i32], double, i32, [32 x i8] }
%struct.libraw_metadata_common_t = type { float, float, float, float, float, float, float, float, float, float, float, float, float, float, float, float, i16, [128 x i8], float, [4 x %struct.libraw_afinfo_item_t], i32 }
%struct.libraw_afinfo_item_t = type { i32, i16, i32, i32, ptr }
%struct.libraw_shootinginfo_t = type { i16, i16, i16, i16, i16, i16, i16, [64 x i8], [64 x i8] }
%struct.libraw_output_params_t = type { [4 x i32], [4 x i32], [4 x double], [6 x double], [4 x float], float, float, i32, i32, i32, i32, i32, i32, i32, ptr, ptr, ptr, ptr, i32, i32, i32, i32, i32, i32, [4 x i32], i32, i32, float, float, i32, i32, i32, i32, i32, i32, i32, i32, float, float, i32, i32 }
%struct.libraw_raw_unpack_params_t = type { i32, i32, i32, i32, i32, i32, i32, float, [5 x i8], ptr }
%struct.libraw_colordata_t = type { [65536 x i16], [4104 x i32], i32, i32, i32, [4 x i64], float, float, [8 x [8 x i16]], [4 x float], [4 x float], [3 x [4 x float]], [3 x [4 x float]], [3 x [4 x float]], [4 x [3 x float]], %struct.ph1_t, float, float, [64 x i8], [64 x i8], [64 x i8], [64 x i8], [17 x i8], [64 x i8], ptr, i32, [8 x i32], [2 x %struct.libraw_dng_color_t], %struct.libraw_dng_levels_t, [256 x [4 x i32]], [64 x [5 x float]], i32, [2 x %struct.libraw_P1_color_t], i32, i32 }
%struct.ph1_t = type { i32, i32, i32, i32, i32, i32, i32, i32, float }
%struct.libraw_dng_color_t = type { i32, i16, [4 x [4 x float]], [4 x [3 x float]], [3 x [4 x float]] }
%struct.libraw_dng_levels_t = type { i32, [4104 x i32], i32, [4104 x float], float, [4 x i32], [4 x i16], [4 x float], i32, [4 x float], [4 x float], float, float }
%struct.libraw_P1_color_t = type { [9 x float] }
%struct.libraw_imgother_t = type { float, float, float, float, i64, i32, [32 x i32], %struct.libraw_gps_info_t, [512 x i8], [64 x i8], [4 x float] }
%struct.libraw_gps_info_t = type { [3 x float], [3 x float], [3 x float], float, i8, i8, i8, i8, i8 }
%struct.libraw_thumbnail_t = type { i32, i16, i16, i32, i32, ptr }
%struct.libraw_thumbnail_list_t = type { i32, [8 x %struct.libraw_thumbnail_item_t] }
%struct.libraw_thumbnail_item_t = type { i32, i16, i16, i16, i32, i32, i64 }
%struct.libraw_rawdata_t = type { ptr, ptr, ptr, ptr, ptr, ptr, ptr, ptr, ptr, %struct.libraw_iparams_t, %struct.libraw_image_sizes_t, %struct.libraw_internal_output_params_t, %struct.libraw_colordata_t }
%struct.libraw_internal_output_params_t = type { i32, i32, i32, i16, i16 }
%struct.libraw_internal_data_t = type { %struct.internal_data_t, %struct.libraw_internal_output_params_t, %struct.output_data_t, %struct.identify_data_t, %struct.unpacker_data_t }
%struct.internal_data_t = type { ptr, ptr, i32, ptr, i64, i64, [4 x i32] }
%struct.output_data_t = type { ptr, ptr }
%struct.identify_data_t = type { i32, i64, i64, i32, i32, i32 }
%struct.unpacker_data_t = type { i16, [4 x i16], [3 x i16], i32, i64, i64, i64, i64, i64, i64, i32, i32, i32, i32, i32, i32, i32, i32, i32, i32, i32, i32, i32, i32, i32, i32, i32, i64, i32, i32, i32, i32, i32, i32, i32, i32, i32, %struct.pana8_tags_t, [16 x %struct.crx_data_header_t], i32, i32, i16, i16, i32, i32, i32, i32, i32, i32, i32, [20 x i32], i16 }
%struct.pana8_tags_t = type { [6 x i32], [6 x i16], i16, [4 x i16], [17 x i16], [17 x i16], [17 x i16], i16, i16, [5 x i64], [5 x i16], [5 x i32], [5 x i16], [5 x i16] }
%struct.crx_data_header_t = type { i32, i32, i32, i32, i32, i32, i32, i32, i32, i32, i32, i32, i32, i32, i32, i64, i32, ptr, i32, i32, i32, ptr, i32, ptr }
%struct.decode = type { [2 x ptr], i32 }
%struct.tiff_ifd_t = type { i32, i32, i32, i32, i32, i32, i32, i32, i32, i32, i32, i32, i32, i32, i32, ptr, i32, ptr, i32, i32, i32, i32, i32, i32, i32, float, i64, i64, i32, [2 x %struct.libraw_dng_color_t], %struct.libraw_dng_levels_t, i32 }
%class.libraw_memmgr = type <{ ptr, i32, [4 x i8] }>
%struct.libraw_callbacks_t = type { ptr, ptr, ptr, ptr, ptr, ptr, ptr, ptr, ptr, ptr, ptr, ptr, ptr, ptr, ptr, ptr, ptr }

; Function Attrs: mustprogress nounwind uwtable
define void @_ZN6LibRaw16adobe_copy_pixelEjjPPt(ptr noundef nonnull align 8 dereferenceable(767680) %0, i32 noundef %1, i32 noundef %2, ptr noundef %3) #1 align 2 {
  %5 = alloca ptr, align 8
  %6 = alloca i32, align 4
  %7 = alloca i32, align 4
  %8 = alloca ptr, align 8
  %9 = alloca i32, align 4
  store ptr %0, ptr %5, align 8, !tbaa !6
  store i32 %1, ptr %6, align 4, !tbaa !13
  store i32 %2, ptr %7, align 4, !tbaa !13
  store ptr %3, ptr %8, align 8, !tbaa !15
  %10 = load ptr, ptr %5, align 8
  call void @llvm.lifetime.start.p0(i64 4, ptr %9) #14
  %11 = getelementptr inbounds nuw %class.LibRaw, ptr %10, i32 0, i32 3
  %12 = getelementptr inbounds nuw %struct.libraw_internal_data_t, ptr %11, i32 0, i32 4
  %13 = getelementptr inbounds nuw %struct.unpacker_data_t, ptr %12, i32 0, i32 17
  %14 = load i32, ptr %13, align 4, !tbaa !17
  %15 = icmp eq i32 %14, 2
  br i1 %15, label %16, label %26

16:                                               ; preds = %4
  %17 = getelementptr inbounds nuw %class.LibRaw, ptr %10, i32 0, i32 1
  %18 = getelementptr inbounds nuw %struct.libraw_data_t, ptr %17, i32 0, i32 7
  %19 = getelementptr inbounds nuw %struct.libraw_raw_unpack_params_t, ptr %18, i32 0, i32 3
  %20 = load i32, ptr %19, align 4, !tbaa !78
  %21 = icmp ne i32 %20, 0
  br i1 %21, label %22, label %26

22:                                               ; preds = %16
  %23 = load ptr, ptr %8, align 8, !tbaa !15
  %24 = load ptr, ptr %23, align 8, !tbaa !79
  %25 = getelementptr inbounds nuw i16, ptr %24, i32 1
  store ptr %25, ptr %23, align 8, !tbaa !79
  br label %26

26:                                               ; preds = %22, %16, %4
  %27 = getelementptr inbounds nuw %class.LibRaw, ptr %10, i32 0, i32 1
  %28 = getelementptr inbounds nuw %struct.libraw_data_t, ptr %27, i32 0, i32 14
  %29 = getelementptr inbounds nuw %struct.libraw_rawdata_t, ptr %28, i32 0, i32 1
  %30 = load ptr, ptr %29, align 8, !tbaa !80
  %31 = icmp ne ptr %30, null
  br i1 %31, label %32, label %82

32:                                               ; preds = %26
  %33 = load i32, ptr %6, align 4, !tbaa !13
  %34 = getelementptr inbounds nuw %class.LibRaw, ptr %10, i32 0, i32 1
  %35 = getelementptr inbounds nuw %struct.libraw_data_t, ptr %34, i32 0, i32 1
  %36 = getelementptr inbounds nuw %struct.libraw_image_sizes_t, ptr %35, i32 0, i32 0
  %37 = load i16, ptr %36, align 8, !tbaa !81
  %38 = zext i16 %37 to i32
  %39 = icmp ult i32 %33, %38
  br i1 %39, label %40, label %73

40:                                               ; preds = %32
  %41 = load i32, ptr %7, align 4, !tbaa !13
  %42 = getelementptr inbounds nuw %class.LibRaw, ptr %10, i32 0, i32 1
  %43 = getelementptr inbounds nuw %struct.libraw_data_t, ptr %42, i32 0, i32 1
  %44 = getelementptr inbounds nuw %struct.libraw_image_sizes_t, ptr %43, i32 0, i32 1
  %45 = load i16, ptr %44, align 2, !tbaa !82
  %46 = zext i16 %45 to i32
  %47 = icmp ult i32 %41, %46
  br i1 %47, label %48, label %73

48:                                               ; preds = %40
  %49 = getelementptr inbounds nuw %class.LibRaw, ptr %10, i32 0, i32 1
  %50 = getelementptr inbounds nuw %struct.libraw_data_t, ptr %49, i32 0, i32 10
  %51 = getelementptr inbounds nuw %struct.libraw_colordata_t, ptr %50, i32 0, i32 0
  %52 = load ptr, ptr %8, align 8, !tbaa !15
  %53 = load ptr, ptr %52, align 8, !tbaa !79
  %54 = load i16, ptr %53, align 2, !tbaa !83
  %55 = zext i16 %54 to i64
  %56 = getelementptr inbounds nuw [65536 x i16], ptr %51, i64 0, i64 %55
  %57 = load i16, ptr %56, align 2, !tbaa !83
  %58 = getelementptr inbounds nuw %class.LibRaw, ptr %10, i32 0, i32 1
  %59 = getelementptr inbounds nuw %struct.libraw_data_t, ptr %58, i32 0, i32 14
  %60 = getelementptr inbounds nuw %struct.libraw_rawdata_t, ptr %59, i32 0, i32 1
  %61 = load ptr, ptr %60, align 8, !tbaa !80
  %62 = load i32, ptr %6, align 4, !tbaa !13
  %63 = getelementptr inbounds nuw %class.LibRaw, ptr %10, i32 0, i32 1
  %64 = getelementptr inbounds nuw %struct.libraw_data_t, ptr %63, i32 0, i32 1
  %65 = getelementptr inbounds nuw %struct.libraw_image_sizes_t, ptr %64, i32 0, i32 1
  %66 = load i16, ptr %65, align 2, !tbaa !82
  %67 = zext i16 %66 to i32
  %68 = mul i32 %62, %67
  %69 = load i32, ptr %7, align 4, !tbaa !13
  %70 = add i32 %68, %69
  %71 = zext i32 %70 to i64
  %72 = getelementptr inbounds nuw i16, ptr %61, i64 %71
  store i16 %57, ptr %72, align 2, !tbaa !83
  br label %73

73:                                               ; preds = %48, %40, %32
  %74 = getelementptr inbounds nuw %class.LibRaw, ptr %10, i32 0, i32 3
  %75 = getelementptr inbounds nuw %struct.libraw_internal_data_t, ptr %74, i32 0, i32 4
  %76 = getelementptr inbounds nuw %struct.unpacker_data_t, ptr %75, i32 0, i32 17
  %77 = load i32, ptr %76, align 4, !tbaa !17
  %78 = load ptr, ptr %8, align 8, !tbaa !15
  %79 = load ptr, ptr %78, align 8, !tbaa !79
  %80 = zext i32 %77 to i64
  %81 = getelementptr inbounds nuw i16, ptr %79, i64 %80
  store ptr %81, ptr %78, align 8, !tbaa !79
  br label %149

82:                                               ; preds = %26
  %83 = load i32, ptr %6, align 4, !tbaa !13
  %84 = getelementptr inbounds nuw %class.LibRaw, ptr %10, i32 0, i32 1
  %85 = getelementptr inbounds nuw %struct.libraw_data_t, ptr %84, i32 0, i32 1
  %86 = getelementptr inbounds nuw %struct.libraw_image_sizes_t, ptr %85, i32 0, i32 0
  %87 = load i16, ptr %86, align 8, !tbaa !81
  %88 = zext i16 %87 to i32
  %89 = icmp ult i32 %83, %88
  br i1 %89, label %90, label %140

90:                                               ; preds = %82
  %91 = load i32, ptr %7, align 4, !tbaa !13
  %92 = getelementptr inbounds nuw %class.LibRaw, ptr %10, i32 0, i32 1
  %93 = getelementptr inbounds nuw %struct.libraw_data_t, ptr %92, i32 0, i32 1
  %94 = getelementptr inbounds nuw %struct.libraw_image_sizes_t, ptr %93, i32 0, i32 1
  %95 = load i16, ptr %94, align 2, !tbaa !82
  %96 = zext i16 %95 to i32
  %97 = icmp ult i32 %91, %96
  br i1 %97, label %98, label %140

98:                                               ; preds = %90
  store i32 0, ptr %9, align 4, !tbaa !13
  br label %99

99:                                               ; preds = %136, %98
  %100 = load i32, ptr %9, align 4, !tbaa !13
  %101 = getelementptr inbounds nuw %class.LibRaw, ptr %10, i32 0, i32 3
  %102 = getelementptr inbounds nuw %struct.libraw_internal_data_t, ptr %101, i32 0, i32 4
  %103 = getelementptr inbounds nuw %struct.unpacker_data_t, ptr %102, i32 0, i32 17
  %104 = load i32, ptr %103, align 4, !tbaa !17
  %105 = icmp slt i32 %100, %104
  br i1 %105, label %106, label %139

106:                                              ; preds = %99
  %107 = getelementptr inbounds nuw %class.LibRaw, ptr %10, i32 0, i32 1
  %108 = getelementptr inbounds nuw %struct.libraw_data_t, ptr %107, i32 0, i32 10
  %109 = getelementptr inbounds nuw %struct.libraw_colordata_t, ptr %108, i32 0, i32 0
  %110 = load ptr, ptr %8, align 8, !tbaa !15
  %111 = load ptr, ptr %110, align 8, !tbaa !79
  %112 = load i32, ptr %9, align 4, !tbaa !13
  %113 = sext i32 %112 to i64
  %114 = getelementptr inbounds i16, ptr %111, i64 %113
  %115 = load i16, ptr %114, align 2, !tbaa !83
  %116 = zext i16 %115 to i64
  %117 = getelementptr inbounds nuw [65536 x i16], ptr %109, i64 0, i64 %116
  %118 = load i16, ptr %117, align 2, !tbaa !83
  %119 = getelementptr inbounds nuw %class.LibRaw, ptr %10, i32 0, i32 1
  %120 = getelementptr inbounds nuw %struct.libraw_data_t, ptr %119, i32 0, i32 0
  %121 = load ptr, ptr %120, align 8, !tbaa !84
  %122 = load i32, ptr %6, align 4, !tbaa !13
  %123 = getelementptr inbounds nuw %class.LibRaw, ptr %10, i32 0, i32 1
  %124 = getelementptr inbounds nuw %struct.libraw_data_t, ptr %123, i32 0, i32 1
  %125 = getelementptr inbounds nuw %struct.libraw_image_sizes_t, ptr %124, i32 0, i32 1
  %126 = load i16, ptr %125, align 2, !tbaa !82
  %127 = zext i16 %126 to i32
  %128 = mul i32 %122, %127
  %129 = load i32, ptr %7, align 4, !tbaa !13
  %130 = add i32 %128, %129
  %131 = zext i32 %130 to i64
  %132 = getelementptr inbounds nuw [4 x i16], ptr %121, i64 %131
  %133 = load i32, ptr %9, align 4, !tbaa !13
  %134 = sext i32 %133 to i64
  %135 = getelementptr inbounds [4 x i16], ptr %132, i64 0, i64 %134
  store i16 %118, ptr %135, align 2, !tbaa !83
  br label %136

136:                                              ; preds = %106
  %137 = load i32, ptr %9, align 4, !tbaa !13
  %138 = add nsw i32 %137, 1
  store i32 %138, ptr %9, align 4, !tbaa !13
  br label %99, !llvm.loop !85

139:                                              ; preds = %99
  br label %140

140:                                              ; preds = %139, %90, %82
  %141 = getelementptr inbounds nuw %class.LibRaw, ptr %10, i32 0, i32 3
  %142 = getelementptr inbounds nuw %struct.libraw_internal_data_t, ptr %141, i32 0, i32 4
  %143 = getelementptr inbounds nuw %struct.unpacker_data_t, ptr %142, i32 0, i32 17
  %144 = load i32, ptr %143, align 4, !tbaa !17
  %145 = load ptr, ptr %8, align 8, !tbaa !15
  %146 = load ptr, ptr %145, align 8, !tbaa !79
  %147 = zext i32 %144 to i64
  %148 = getelementptr inbounds nuw i16, ptr %146, i64 %147
  store ptr %148, ptr %145, align 8, !tbaa !79
  br label %149

149:                                              ; preds = %140, %73
  %150 = getelementptr inbounds nuw %class.LibRaw, ptr %10, i32 0, i32 3
  %151 = getelementptr inbounds nuw %struct.libraw_internal_data_t, ptr %150, i32 0, i32 4
  %152 = getelementptr inbounds nuw %struct.unpacker_data_t, ptr %151, i32 0, i32 17
  %153 = load i32, ptr %152, align 4, !tbaa !17
  %154 = icmp eq i32 %153, 2
  br i1 %154, label %155, label %165

155:                                              ; preds = %149
  %156 = getelementptr inbounds nuw %class.LibRaw, ptr %10, i32 0, i32 1
  %157 = getelementptr inbounds nuw %struct.libraw_data_t, ptr %156, i32 0, i32 7
  %158 = getelementptr inbounds nuw %struct.libraw_raw_unpack_params_t, ptr %157, i32 0, i32 3
  %159 = load i32, ptr %158, align 4, !tbaa !78
  %160 = icmp ne i32 %159, 0
  br i1 %160, label %161, label %165

161:                                              ; preds = %155
  %162 = load ptr, ptr %8, align 8, !tbaa !15
  %163 = load ptr, ptr %162, align 8, !tbaa !79
  %164 = getelementptr inbounds i16, ptr %163, i32 -1
  store ptr %164, ptr %162, align 8, !tbaa !79
  br label %165

165:                                              ; preds = %161, %155, %149
  call void @llvm.lifetime.end.p0(i64 4, ptr %9) #14
  ret void
}