; Function Attrs: mustprogress nofree norecurse nosync nounwind memory(readwrite, inaccessiblemem: none) uwtable
define void @_ZN6LibRaw16adobe_copy_pixelEjjPPt(ptr noundef nonnull readonly align 8 captures(none) dereferenceable(767680) %0, i32 noundef %1, i32 noundef %2, ptr noundef captures(none) %3) local_unnamed_addr #2 align 2 {
  %5 = getelementptr inbounds nuw i8, ptr %0, i64 381652
  %6 = load i32, ptr %5, align 4, !tbaa !10
  %7 = icmp ne i32 %6, 2
  %8 = getelementptr inbounds nuw i8, ptr %0, i64 5460
  %9 = load i32, ptr %8, align 4
  %.not = icmp eq i32 %9, 0
  %or.cond = select i1 %7, i1 true, i1 %.not
  br i1 %or.cond, label %13, label %10

10:                                               ; preds = %4
  %11 = load ptr, ptr %3, align 8, !tbaa !73
  %12 = getelementptr inbounds nuw i8, ptr %11, i64 2
  store ptr %12, ptr %3, align 8, !tbaa !73
  br label %13

13:                                               ; preds = %10, %4
  %14 = getelementptr inbounds nuw i8, ptr %0, i64 8
  %15 = getelementptr inbounds nuw i8, ptr %0, i64 193648
  %16 = load ptr, ptr %15, align 8, !tbaa !74
  %.not23 = icmp eq ptr %16, null
  %17 = getelementptr inbounds nuw i8, ptr %0, i64 16
  %18 = load i16, ptr %17, align 8, !tbaa !75
  %19 = zext i16 %18 to i32
  %20 = icmp ult i32 %1, %19
  br i1 %.not23, label %37, label %21

21:                                               ; preds = %13
  br i1 %20, label %22, label %._crit_edge

._crit_edge:                                      ; preds = %21
  %.pre = load ptr, ptr %3, align 8, !tbaa !73
  br label %.loopexit

22:                                               ; preds = %21
  %23 = getelementptr inbounds nuw i8, ptr %0, i64 18
  %24 = load i16, ptr %23, align 2, !tbaa !76
  %25 = zext i16 %24 to i32
  %26 = icmp ult i32 %2, %25
  %.pre31 = load ptr, ptr %3, align 8, !tbaa !73
  br i1 %26, label %27, label %.loopexit

27:                                               ; preds = %22
  %28 = getelementptr inbounds nuw i8, ptr %0, i64 5504
  %29 = load i16, ptr %.pre31, align 2, !tbaa !77
  %30 = zext i16 %29 to i64
  %31 = getelementptr inbounds nuw [65536 x i16], ptr %28, i64 0, i64 %30
  %32 = load i16, ptr %31, align 2, !tbaa !77
  %33 = mul nuw i32 %1, %25
  %34 = add nuw i32 %33, %2
  %35 = zext i32 %34 to i64
  %36 = getelementptr inbounds nuw i16, ptr %16, i64 %35
  store i16 %32, ptr %36, align 2, !tbaa !77
  br label %.loopexit

37:                                               ; preds = %13
  br i1 %20, label %38, label %..loopexit_crit_edge

..loopexit_crit_edge:                             ; preds = %37
  %.pre32 = load ptr, ptr %3, align 8, !tbaa !73
  br label %.loopexit

38:                                               ; preds = %37
  %39 = getelementptr inbounds nuw i8, ptr %0, i64 18
  %40 = load i16, ptr %39, align 2, !tbaa !76
  %41 = zext i16 %40 to i32
  %42 = icmp ult i32 %2, %41
  %43 = icmp sgt i32 %6, 0
  %or.cond29 = and i1 %42, %43
  %.pre33 = load ptr, ptr %3, align 8, !tbaa !73
  br i1 %or.cond29, label %.lr.ph, label %.loopexit

.lr.ph:                                           ; preds = %38
  %44 = getelementptr inbounds nuw i8, ptr %0, i64 5504
  %45 = load ptr, ptr %14, align 8, !tbaa !78
  %wide.trip.count = zext nneg i32 %6 to i64
  br label %46

46:                                               ; preds = %.lr.ph, %46
  %indvars.iv = phi i64 [ 0, %.lr.ph ], [ %indvars.iv.next, %46 ]
  %47 = getelementptr inbounds nuw i16, ptr %.pre33, i64 %indvars.iv
  %48 = load i16, ptr %47, align 2, !tbaa !77
  %49 = zext i16 %48 to i64
  %50 = getelementptr inbounds nuw [65536 x i16], ptr %44, i64 0, i64 %49
  %51 = load i16, ptr %50, align 2, !tbaa !77
  %52 = load i16, ptr %39, align 2, !tbaa !76
  %53 = zext i16 %52 to i32
  %54 = mul nuw i32 %1, %53
  %55 = add nuw i32 %54, %2
  %56 = zext i32 %55 to i64
  %57 = getelementptr inbounds nuw [4 x i16], ptr %45, i64 %56, i64 %indvars.iv
  store i16 %51, ptr %57, align 2, !tbaa !77
  %indvars.iv.next = add nuw nsw i64 %indvars.iv, 1
  %exitcond.not = icmp eq i64 %indvars.iv.next, %wide.trip.count
  br i1 %exitcond.not, label %.loopexit, label %46, !llvm.loop !79

.loopexit:                                        ; preds = %46, %38, %..loopexit_crit_edge, %22, %27, %._crit_edge
  %.sink = phi ptr [ %.pre, %._crit_edge ], [ %.pre31, %27 ], [ %.pre31, %22 ], [ %.pre32, %..loopexit_crit_edge ], [ %.pre33, %38 ], [ %.pre33, %46 ]
  %58 = zext i32 %6 to i64
  %59 = getelementptr inbounds nuw i16, ptr %.sink, i64 %58
  store ptr %59, ptr %3, align 8, !tbaa !73
  %60 = load i32, ptr %8, align 4
  %.not24 = icmp eq i32 %60, 0
  %or.cond27 = select i1 %7, i1 true, i1 %.not24
  br i1 %or.cond27, label %63, label %61

61:                                               ; preds = %.loopexit
  %62 = getelementptr inbounds i8, ptr %59, i64 -2
  store ptr %62, ptr %3, align 8, !tbaa !73
  br label %63

63:                                               ; preds = %61, %.loopexit
  ret void
}